; Function Attrs: mustprogress nounwind uwtable
define internal fastcc void @_ZNSt16allocator_traitsISaIN5Yosys7hashlib4dictINS0_5RTLIL6SigBitENS1_4poolIPN12_GLOBAL__N_19GraphNodeENS1_8hash_opsIS8_EEEENS9_IS4_EEE7entry_tEEE7destroyISE_EEvRSF_PT_(ptr noundef readonly captures(none) %0) unnamed_addr #6 align 2 personality ptr @__gxx_personality_v0 {
  %2 = getelementptr inbounds nuw i8, ptr %0, i64 16
  %3 = getelementptr inbounds nuw i8, ptr %0, i64 40
  %.val.i.i.i.i = load ptr, ptr %3, align 8
  %.not.i.i.i.i.i.i.i = icmp eq ptr %.val.i.i.i.i, null
  br i1 %.not.i.i.i.i.i.i.i, label %_ZNSt6vectorIN5Yosys7hashlib4poolIPN12_GLOBAL__N_19GraphNodeENS1_8hash_opsIS5_EEE7entry_tESaIS9_EED2Ev.exit.i.i.i.i, label %4

4:                                                ; preds = %1
  %5 = getelementptr inbounds nuw i8, ptr %0, i64 56
  %.val1.i.i.i.i = load ptr, ptr %5, align 8
  %6 = ptrtoint ptr %.val1.i.i.i.i to i64
  %7 = ptrtoint ptr %.val.i.i.i.i to i64
  %8 = sub i64 %6, %7
  tail call void @_ZdlPvm(ptr noundef nonnull %.val.i.i.i.i, i64 noundef %8) #33
  br label %_ZNSt6vectorIN5Yosys7hashlib4poolIPN12_GLOBAL__N_19GraphNodeENS1_8hash_opsIS5_EEE7entry_tESaIS9_EED2Ev.exit.i.i.i.i

_ZNSt6vectorIN5Yosys7hashlib4poolIPN12_GLOBAL__N_19GraphNodeENS1_8hash_opsIS5_EEE7entry_tESaIS9_EED2Ev.exit.i.i.i.i: ; preds = %4, %1
  %9 = load ptr, ptr %2, align 8, !tbaa !64
  %.not.i.i.i2.i.i.i.i = icmp eq ptr %9, null
  br i1 %.not.i.i.i2.i.i.i.i, label %_ZNSt15__new_allocatorIN5Yosys7hashlib4dictINS0_5RTLIL6SigBitENS1_4poolIPN12_GLOBAL__N_19GraphNodeENS1_8hash_opsIS8_EEEENS9_IS4_EEE7entry_tEE7destroyISE_EEvPT_.exit, label %10

10:                                               ; preds = %_ZNSt6vectorIN5Yosys7hashlib4poolIPN12_GLOBAL__N_19GraphNodeENS1_8hash_opsIS5_EEE7entry_tESaIS9_EED2Ev.exit.i.i.i.i
  %11 = getelementptr inbounds nuw i8, ptr %0, i64 32
  %12 = load ptr, ptr %11, align 8, !tbaa !66
  %13 = ptrtoint ptr %12 to i64
  %14 = ptrtoint ptr %9 to i64
  %15 = sub i64 %13, %14
  tail call void @_ZdlPvm(ptr noundef nonnull %9, i64 noundef %15) #33
  br label %_ZNSt15__new_allocatorIN5Yosys7hashlib4dictINS0_5RTLIL6SigBitENS1_4poolIPN12_GLOBAL__N_19GraphNodeENS1_8hash_opsIS8_EEEENS9_IS4_EEE7entry_tEE7destroyISE_EEvPT_.exit

_ZNSt15__new_allocatorIN5Yosys7hashlib4dictINS0_5RTLIL6SigBitENS1_4poolIPN12_GLOBAL__N_19GraphNodeENS1_8hash_opsIS8_EEEENS9_IS4_EEE7entry_tEE7destroyISE_EEvPT_.exit: ; preds = %_ZNSt6vectorIN5Yosys7hashlib4poolIPN12_GLOBAL__N_19GraphNodeENS1_8hash_opsIS5_EEE7entry_tESaIS9_EED2Ev.exit.i.i.i.i, %10
  ret void
}